target datalayout = "e-m:e-p270:32:32-p271:32:32-p272:64:64-i64:64-i128:128-f80:128-n8:16:32:64-S128"
target triple = "x86_64-pc-linux-gnu"

%struct.Fraig_ManStruct_t_ = type { ptr, ptr, ptr, ptr, ptr, ptr, ptr, ptr, ptr, i32, i32, i32, i32, i32, i32, i32, i32, i32, i32, i32, i32, i64, i32, i32, i32, i32, i32, ptr, ptr, ptr, ptr, ptr, i32, ptr, ptr, ptr, ptr, ptr, ptr, i32, ptr, ptr, ptr, ptr, i32, i32, i32, i32, i32, i32, i32, i32, i32, i32, i32, i32, i32, i32, i32, i32, i32, i32, i32, i64, i64, i64, i64, i64, i64, i64, i64, i64, i64, i64, i64 }
%struct.Fraig_NodeVecStruct_t_ = type { i32, i32, ptr }

; Function Attrs: nounwind uwtable
define i32 @Fraig_ManCheckMiter(ptr noundef %0) #0 {
  %2 = alloca i32, align 4
  %3 = alloca ptr, align 8
  %4 = alloca ptr, align 8
  %5 = alloca i32, align 4
  %6 = alloca i32, align 4
  store ptr %0, ptr %3, align 8, !tbaa !3
  call void @llvm.lifetime.start.p0(i64 8, ptr %4) #5
  call void @llvm.lifetime.start.p0(i64 4, ptr %5) #5
  %7 = load ptr, ptr %3, align 8, !tbaa !3
  %8 = getelementptr inbounds nuw %struct.Fraig_ManStruct_t_, ptr %7, i32 0, i32 40
  %9 = load ptr, ptr %8, align 8, !tbaa !52
  %10 = icmp ne ptr %9, null
  br i1 %10, label %11, label %17

11:                                               ; preds = %1
  %12 = load ptr, ptr %3, align 8, !tbaa !3
  %13 = getelementptr inbounds nuw %struct.Fraig_ManStruct_t_, ptr %12, i32 0, i32 40
  %14 = load ptr, ptr %13, align 8, !tbaa !52
  call void @free(ptr noundef %14) #5
  %15 = load ptr, ptr %3, align 8, !tbaa !3
  %16 = getelementptr inbounds nuw %struct.Fraig_ManStruct_t_, ptr %15, i32 0, i32 40
  store ptr null, ptr %16, align 8, !tbaa !52
  br label %18

17:                                               ; preds = %1
  br label %18

18:                                               ; preds = %17, %11
  store i32 0, ptr %5, align 4, !tbaa !10
  br label %19

19:                                               ; preds = %69, %18
  %20 = load i32, ptr %5, align 4, !tbaa !10
  %21 = load ptr, ptr %3, align 8, !tbaa !3
  %22 = getelementptr inbounds nuw %struct.Fraig_ManStruct_t_, ptr %21, i32 0, i32 2
  %23 = load ptr, ptr %22, align 8, !tbaa !47
  %24 = getelementptr inbounds nuw %struct.Fraig_NodeVecStruct_t_, ptr %23, i32 0, i32 1
  %25 = load i32, ptr %24, align 4, !tbaa !27
  %26 = icmp slt i32 %20, %25
  br i1 %26, label %27, label %72

27:                                               ; preds = %19
  %28 = load ptr, ptr %3, align 8, !tbaa !3
  %29 = getelementptr inbounds nuw %struct.Fraig_ManStruct_t_, ptr %28, i32 0, i32 2
  %30 = load ptr, ptr %29, align 8, !tbaa !47
  %31 = getelementptr inbounds nuw %struct.Fraig_NodeVecStruct_t_, ptr %30, i32 0, i32 2
  %32 = load ptr, ptr %31, align 8, !tbaa !30
  %33 = load i32, ptr %5, align 4, !tbaa !10
  %34 = sext i32 %33 to i64
  %35 = getelementptr inbounds ptr, ptr %32, i64 %34
  %36 = load ptr, ptr %35, align 8, !tbaa !8
  store ptr %36, ptr %4, align 8, !tbaa !8
  %37 = load ptr, ptr %4, align 8, !tbaa !8
  %38 = load ptr, ptr %3, align 8, !tbaa !3
  %39 = getelementptr inbounds nuw %struct.Fraig_ManStruct_t_, ptr %38, i32 0, i32 3
  %40 = load ptr, ptr %39, align 8, !tbaa !43
  %41 = ptrtoint ptr %40 to i64
  %42 = xor i64 %41, 1
  %43 = inttoptr i64 %42 to ptr
  %44 = icmp eq ptr %37, %43
  br i1 %44, label %45, label %46

45:                                               ; preds = %27
  br label %69

46:                                               ; preds = %27
  %47 = load ptr, ptr %4, align 8, !tbaa !8
  %48 = load ptr, ptr %3, align 8, !tbaa !3
  %49 = getelementptr inbounds nuw %struct.Fraig_ManStruct_t_, ptr %48, i32 0, i32 3
  %50 = load ptr, ptr %49, align 8, !tbaa !43
  %51 = icmp eq ptr %47, %50
  br i1 %51, label %52, label %57

52:                                               ; preds = %46
  %53 = load ptr, ptr %3, align 8, !tbaa !3
  %54 = call ptr @Fraig_ManAllocCounterExample(ptr noundef %53)
  %55 = load ptr, ptr %3, align 8, !tbaa !3
  %56 = getelementptr inbounds nuw %struct.Fraig_ManStruct_t_, ptr %55, i32 0, i32 40
  store ptr %54, ptr %56, align 8, !tbaa !52
  store i32 0, ptr %2, align 4
  store i32 1, ptr %6, align 4
  br label %73

57:                                               ; preds = %46
  %58 = load ptr, ptr %3, align 8, !tbaa !3
  %59 = load ptr, ptr %4, align 8, !tbaa !8
  %60 = call ptr @Fraig_ManSaveCounterExample(ptr noundef %58, ptr noundef %59)
  %61 = load ptr, ptr %3, align 8, !tbaa !3
  %62 = getelementptr inbounds nuw %struct.Fraig_ManStruct_t_, ptr %61, i32 0, i32 40
  store ptr %60, ptr %62, align 8, !tbaa !52
  %63 = load ptr, ptr %3, align 8, !tbaa !3
  %64 = getelementptr inbounds nuw %struct.Fraig_ManStruct_t_, ptr %63, i32 0, i32 40
  %65 = load ptr, ptr %64, align 8, !tbaa !52
  %66 = icmp eq ptr %65, null
  br i1 %66, label %67, label %68

67:                                               ; preds = %57
  store i32 -1, ptr %2, align 4
  store i32 1, ptr %6, align 4
  br label %73

68:                                               ; preds = %57
  store i32 0, ptr %2, align 4
  store i32 1, ptr %6, align 4
  br label %73

69:                                               ; preds = %45
  %70 = load i32, ptr %5, align 4, !tbaa !10
  %71 = add nsw i32 %70, 1
  store i32 %71, ptr %5, align 4, !tbaa !10
  br label %19, !llvm.loop !53

72:                                               ; preds = %19
  store i32 1, ptr %2, align 4
  store i32 1, ptr %6, align 4
  br label %73

73:                                               ; preds = %72, %68, %67, %52
  call void @llvm.lifetime.end.p0(i64 4, ptr %5) #5
  call void @llvm.lifetime.end.p0(i64 8, ptr %4) #5
  %74 = load i32, ptr %2, align 4
  ret i32 %74
}