; Function Attrs: nounwind uwtable
define range(i32 -1, 2) i32 @Fraig_ManCheckMiter(ptr noundef %0) local_unnamed_addr #0 {
  %2 = getelementptr inbounds nuw i8, ptr %0, i64 256
  %3 = load ptr, ptr %2, align 8, !tbaa !54
  %.not = icmp eq ptr %3, null
  br i1 %.not, label %5, label %4

4:                                                ; preds = %1
  tail call void @free(ptr noundef nonnull %3) #10
  store ptr null, ptr %2, align 8, !tbaa !54
  br label %5

5:                                                ; preds = %1, %4
  %6 = getelementptr inbounds nuw i8, ptr %0, i64 16
  %7 = load ptr, ptr %6, align 8, !tbaa !50
  %8 = getelementptr inbounds nuw i8, ptr %7, i64 4
  %9 = load i32, ptr %8, align 4, !tbaa !23
  %10 = icmp sgt i32 %9, 0
  br i1 %10, label %.lr.ph, label %.loopexit

.lr.ph:                                           ; preds = %5
  %11 = getelementptr inbounds nuw i8, ptr %7, i64 8
  %12 = load ptr, ptr %11, align 8, !tbaa !26
  %13 = getelementptr inbounds nuw i8, ptr %0, i64 24
  %14 = load ptr, ptr %13, align 8, !tbaa !44
  %15 = ptrtoint ptr %14 to i64
  %16 = xor i64 %15, 1
  %17 = inttoptr i64 %16 to ptr
  %wide.trip.count = zext nneg i32 %9 to i64
  br label %19

18:                                               ; preds = %19
  %indvars.iv.next = add nuw nsw i64 %indvars.iv, 1
  %exitcond.not = icmp eq i64 %indvars.iv.next, %wide.trip.count
  br i1 %exitcond.not, label %.loopexit, label %19, !llvm.loop !55

19:                                               ; preds = %.lr.ph, %18
  %indvars.iv = phi i64 [ 0, %.lr.ph ], [ %indvars.iv.next, %18 ]
  %20 = getelementptr inbounds nuw ptr, ptr %12, i64 %indvars.iv
  %21 = load ptr, ptr %20, align 8, !tbaa !27
  %22 = icmp eq ptr %21, %17
  br i1 %22, label %18, label %23

23:                                               ; preds = %19
  %24 = icmp eq ptr %21, %14
  br i1 %24, label %25, label %27

25:                                               ; preds = %23
  %26 = tail call ptr @Fraig_ManAllocCounterExample(ptr noundef nonnull %0) #10
  store ptr %26, ptr %2, align 8, !tbaa !54
  br label %.loopexit

27:                                               ; preds = %23
  %28 = tail call ptr @Fraig_ManSaveCounterExample(ptr noundef nonnull %0, ptr noundef %21) #10
  store ptr %28, ptr %2, align 8, !tbaa !54
  %29 = icmp eq ptr %28, null
  %. = sext i1 %29 to i32
  br label %.loopexit

.loopexit:                                        ; preds = %18, %5, %27, %25
  %.018 = phi i32 [ 0, %25 ], [ %., %27 ], [ 1, %5 ], [ 1, %18 ]
  ret i32 %.018
}